target datalayout = "e-m:e-p270:32:32-p271:32:32-p272:64:64-i64:64-i128:128-f80:128-n8:16:32:64-S128"
target triple = "x86_64-pc-linux-gnu"

%struct.pmix_topology_t = type { ptr, ptr }

@.str = private unnamed_addr constant [6 x i8] c"hwloc\00", align 1

; Function Attrs: nounwind uwtable
define void @pmix_hwloc_destruct_topology(ptr noundef %0) #0 {
  %2 = alloca ptr, align 8
  store ptr %0, ptr %2, align 8, !tbaa !3
  %3 = load ptr, ptr %2, align 8, !tbaa !3
  %4 = icmp eq ptr null, %3
  br i1 %4, label %16, label %5

5:                                                ; preds = %1
  %6 = load ptr, ptr %2, align 8, !tbaa !3
  %7 = getelementptr inbounds nuw %struct.pmix_topology_t, ptr %6, i32 0, i32 0
  %8 = load ptr, ptr %7, align 8, !tbaa !19
  %9 = icmp eq ptr null, %8
  br i1 %9, label %16, label %10

10:                                               ; preds = %5
  %11 = load ptr, ptr %2, align 8, !tbaa !3
  %12 = getelementptr inbounds nuw %struct.pmix_topology_t, ptr %11, i32 0, i32 0
  %13 = load ptr, ptr %12, align 8, !tbaa !19
  %14 = call i32 @strncasecmp(ptr noundef %13, ptr noundef @.str, i64 noundef 5) #9
  %15 = icmp ne i32 0, %14
  br i1 %15, label %16, label %17

16:                                               ; preds = %10, %5, %1
  br label %34

17:                                               ; preds = %10
  %18 = load ptr, ptr %2, align 8, !tbaa !3
  %19 = getelementptr inbounds nuw %struct.pmix_topology_t, ptr %18, i32 0, i32 1
  %20 = load ptr, ptr %19, align 8, !tbaa !21
  %21 = icmp ne ptr null, %20
  br i1 %21, label %22, label %28

22:                                               ; preds = %17
  %23 = load ptr, ptr %2, align 8, !tbaa !3
  %24 = getelementptr inbounds nuw %struct.pmix_topology_t, ptr %23, i32 0, i32 1
  %25 = load ptr, ptr %24, align 8, !tbaa !21
  call void @hwloc_topology_destroy(ptr noundef %25)
  %26 = load ptr, ptr %2, align 8, !tbaa !3
  %27 = getelementptr inbounds nuw %struct.pmix_topology_t, ptr %26, i32 0, i32 1
  store ptr null, ptr %27, align 8, !tbaa !21
  br label %28

28:                                               ; preds = %22, %17
  %29 = load ptr, ptr %2, align 8, !tbaa !3
  %30 = getelementptr inbounds nuw %struct.pmix_topology_t, ptr %29, i32 0, i32 0
  %31 = load ptr, ptr %30, align 8, !tbaa !19
  call void @free(ptr noundef %31) #8
  %32 = load ptr, ptr %2, align 8, !tbaa !3
  %33 = getelementptr inbounds nuw %struct.pmix_topology_t, ptr %32, i32 0, i32 0
  store ptr null, ptr %33, align 8, !tbaa !19
  br label %34

34:                                               ; preds = %28, %16
  ret void
}